(lp0
(dp1
S'FAST_RISE_IR'
p2
(lp3
S'CNTRACSID'
p4
aS'SessionDate'
p5
aS'SessionTime'
p6
aS'Stimulus'
p7
aS'StimType'
p8
aS'StimuliAACC'
p9
aS'StimuliACRESP'
p10
aS'StimuliAOnsetTime'
p11
aS'StimuliARESP'
p12
aS'StimuliART'
p13
aS'StimuliBACC'
p14
aS'StimuliBCRESP'
p15
aS'StimuliBOnsetTime'
p16
aS'StimuliBRESP'
p17
aS'StimuliBRT'
p18
asS'EP_AX'
p19
(lp20
S'Subject'
p21
aS'Group'
p22
aS'ExperimentName'
p23
aS'Session'
p24
aS'Age'
p25
aS'Handedness'
p26
aS'Sex'
p27
aS'Block'
p28
aS'Cue.RT'
p29
aS'Cue.ACC'
p30
aS'Probe.RT'
p31
aS'Probe.ACC'
p32
aS'TrialType'
p33
aS'Cue.OnsetTime'
p34
aS'Probe.OnsetTime'
p35
aS'Cue'
p36
ag5
asS'bEP_AX'
p37
(lp38
g21
ag22
ag23
ag24
ag5
ag25
ag26
ag28
aS'Trial'
p39
aS'CueStim[Block]'
p40
aS'AllCue.ACC'
p41
aS'AllCue.OnsetTime'
p42
aS'AllCue.RT'
p43
aS'AllProbe'
p44
aS'AllProbe.ACC'
p45
ag34
ag35
aS'AllProbe.RT'
p46
ag33
aS'Running[Block]'
p47
asS'AGG_Reapp'
p48
(lp49
g21
ag22
aS'TrialNum'
p50
aS'Rating.RESP'
p51
aS'Rating.RT'
p52
aS'Rating.OnsetTime'
p53
aS'StimulusImage.OnsetTime'
p54
ag34
aS'PicValence'
p55
aS'BlockCue'
p56
aS'TrialOrder.Sample'
p57
asS'NICNAC_CUE'
p58
(lp59
S'Crave.CRESP'
p60
aS'Crave.RESP'
p61
aS'Crave.RT'
p62
aS'Crave.RTTime'
p63
aS'FixDur'
p64
aS'Procedure[Block]'
p65
aS'Duration'
p66
aS'PicNeut1.OnsetTime'
p67
aS'PicSmok1.OnsetTime'
p68
asS'PACT_AX'
p69
(lp70
g21
ag22
ag23
ag24
ag25
ag26
ag27
aS'BlockList'
p71
ag29
ag30
ag31
ag32
ag33
ag34
ag35
ag36
ag5
asS'FAST_RISE_IE'
p72
(lp73
g4
ag5
ag6
ag39
aS'LeftStim'
p74
aS'RightStim'
p75
aS'StimuliACC'
p76
aS'StimuliCRESP'
p77
aS'StimuliOnsetTime'
p78
aS'StimuliRESP'
p79
aS'StimuliRT'
p80
ag7
asS'EP2_ICET'
p81
(lp82
g21
ag22
aS'BlockNum'
p83
ag23
ag50
ag32
aS'IsSame'
p84
ag40
ag33
ag34
ag35
ag31
aS'Feedback'
p85
aS'Feedback.OnsetTime'
p86
ag5
aS'DeadlineNeu'
p87
aS'DeadlineRew'
p88
aS'DeadlinePun'
p89
aS'ISIshort'
p90
aS'Money'
p91
aS'Proce.ACC'
p92
asS'AGG_Ek60'
p93
(lp94
g21
ag22
aS'Procedure[Trial]'
p95
aS'StimSelect.RT[SubTrial]'
p96
aS'StimSelect.ACC[SubTrial]'
p97
aS'StimResp[SubTrial]'
p98
aS'StimSelect.CRESP[SubTrial]'
p99
asS'bEP2_AX'
p100
(lp101
g4
aS'EP2ID'
p102
aS'EPCID'
p103
aS'EPPID'
p104
aS'UHRID'
p105
ag21
ag22
ag23
ag24
ag25
ag26
ag27
aS'Test'
p106
ag29
ag30
ag31
ag32
ag33
ag34
ag35
ag5
asS'FAST_RISE_AR'
p107
(lp108
g4
ag5
ag6
ag39
ag74
ag75
ag76
ag77
ag78
ag79
ag80
ag7
ag33
asS'AGG_ES'
p109
(lp110
g21
ag22
ag83
aS'MiniBlockNum'
p111
aS'DisplayStim.RT'
p112
aS'DisplayStim.OnsetTime'
p113
aS'DisplayStim.ACC'
p114
aS'StartScan.OffsetTime'
p115
ag50
ag33
aS'Emotion'
p116
asS'EP_Stroop'
p117
(lp118
g21
ag24
ag22
ag28
ag39
aS'CellLabel'
p119
aS'StroopStimulus.ACC'
p120
aS'StroopStimulus.OnsetTime'
p121
aS'StroopStimulus.RT'
p122
asS'EP2_AX'
p123
(lp124
g21
ag22
ag24
ag25
ag23
ag26
ag27
ag83
ag29
ag30
ag31
ag32
ag33
ag34
ag35
ag40
ag5
asS'AGG_CS'
p125
(lp126
g21
ag22
aS'CSD'
p127
ag83
ag95
aS'Procedure[SubTrial]'
p128
aS'Go.RT'
p129
aS'Go.OnsetTime'
p130
aS'Go.ACC'
p131
ag33
aS'DisplayRating.RESP'
p132
aS'Rateing[SubTrial]'
p133
asa(dp134
g19
I00
sg37
I00
sg48
I00
sg58
I00
sg69
I00
sg81
I00
sg93
I00
sg100
I00
sg109
I00
sg117
I00
sg123
I00
sg125
I00
sa(dp135
g2
(dp136
S'.edat2'
p137
(dp138
S'StimuliB.CRESP'
p139
g15
sS'StimuliB.ACC'
p140
g14
sS'StimuliB.OnsetTime'
p141
g16
sS'StimuliA.OnsetTime'
p142
g11
sS'StimuliA.CRESP'
p143
g10
sS'StimuliA.ACC'
p144
g9
sS'StimuliB.RT'
p145
g18
sS'StimuliA.RT'
p146
g13
sS'StimuliB.RESP'
p147
g17
sS'StimuliA.RESP'
p148
g12
sssg107
(dp149
g137
(dp150
S'Stimuli.RT'
p151
g80
sS'Stimuli.RESP'
p152
g79
sS'Stimuli.CRESP'
p153
g77
sS'Stimuli.OnsetTime'
p154
g78
sS'Stimuli.ACC'
p155
g76
sS'EncodingList'
p156
g39
sssg123
(dp157
g137
(dp158
S'ProbeStim'
p159
S'ProbeStim[Block]'
p160
sS'Experiment'
p161
g23
sS'CueStim'
p162
g40
ssS'.edat'
p163
(dp164
S'BlockList.Cycle'
p165
g28
sg161
g23
sssg72
(dp166
g137
(dp167
g151
g80
sg152
g79
sg153
g77
sg154
g78
sg155
g76
sg39
S'BadTrial'
p168
sS'EncodingList.Sample'
p169
g39
sssa(lp170
g71
aS'EndBlock'
p171
aa(dp172
g81
(lp173
sg2
(lp174
(lp175
S'ItemsA'
p176
aS'ItemsB'
p177
aasg107
(lp178
sg19
(lp179
sg69
(lp180
sg123
(lp181
sg72
(lp182
sa(dp183
g81
(lp184
sg2
(lp185
g39
asg107
(lp186
sg19
(lp187
sg69
(lp188
sg123
(lp189
sg72
(lp190
sa(dp191
g2
(lp192
g8
asg107
(lp193
g33
asg123
(lp194
g32
asg72
(lp195
g74
asa.